; ModuleID = 'source-C-CXX/14/2114.c'
source_filename = "source-C-CXX/14/2114.c"
target datalayout = "e-m:e-p270:32:32-p271:32:32-p272:64:64-i64:64-f80:128-n8:16:32:64-S128"
target triple = "x86_64-pc-linux-gnu"

@.str = private unnamed_addr constant [3 x i8] c"%d\00", align 1
@.str.1 = private unnamed_addr constant [4 x i8] c"%d\0A\00", align 1

; Function Attrs: nofree nounwind sspstrong uwtable
define dso_local i32 @main() local_unnamed_addr #0 {
  %1 = alloca i32, align 4
  %2 = alloca i32, align 4
  %3 = bitcast i32* %1 to i8*
  call void @llvm.lifetime.start.p0i8(i64 4, i8* nonnull %3) #3
  %4 = bitcast i32* %2 to i8*
  call void @llvm.lifetime.start.p0i8(i64 4, i8* nonnull %4) #3
  %5 = call i32 (i8*, ...) @__isoc99_scanf(i8* getelementptr inbounds ([3 x i8], [3 x i8]* @.str, i64 0, i64 0), i32* nonnull %1)
  %6 = load i32, i32* %1, align 4, !tbaa !5
  %7 = icmp slt i32 %6, 1
  br i1 %7, label %44, label %8

8:                                                ; preds = %0, %36
  %9 = phi i32 [ %37, %36 ], [ %6, %0 ]
  %10 = phi i32 [ %42, %36 ], [ 1, %0 ]
  %11 = phi i32 [ %41, %36 ], [ undef, %0 ]
  %12 = phi i32 [ %40, %36 ], [ undef, %0 ]
  %13 = phi i32 [ %39, %36 ], [ -1, %0 ]
  %14 = phi i32 [ %38, %36 ], [ -1, %0 ]
  %15 = icmp slt i32 %9, 1
  br i1 %15, label %36, label %16

16:                                               ; preds = %8, %16
  %17 = phi i32 [ %32, %16 ], [ %11, %8 ]
  %18 = phi i32 [ %31, %16 ], [ %12, %8 ]
  %19 = phi i32 [ %30, %16 ], [ %13, %8 ]
  %20 = phi i32 [ %29, %16 ], [ %14, %8 ]
  %21 = phi i32 [ %33, %16 ], [ 1, %8 ]
  %22 = call i32 (i8*, ...) @__isoc99_scanf(i8* getelementptr inbounds ([3 x i8], [3 x i8]* @.str, i64 0, i64 0), i32* nonnull %2)
  %23 = load i32, i32* %2, align 4, !tbaa !5
  %24 = icmp eq i32 %23, 0
  %25 = icmp eq i32 %20, -1
  %26 = select i1 %24, i1 %25, i1 false
  %27 = icmp eq i32 %19, -1
  %28 = select i1 %26, i1 %27, i1 false
  %29 = select i1 %28, i32 %10, i32 %20
  %30 = select i1 %28, i32 %21, i32 %19
  %31 = select i1 %24, i32 %10, i32 %18
  %32 = select i1 %24, i32 %21, i32 %17
  %33 = add nuw nsw i32 %21, 1
  %34 = load i32, i32* %1, align 4, !tbaa !5
  %35 = icmp slt i32 %21, %34
  br i1 %35, label %16, label %36, !llvm.loop !9

36:                                               ; preds = %16, %8
  %37 = phi i32 [ %9, %8 ], [ %34, %16 ]
  %38 = phi i32 [ %14, %8 ], [ %29, %16 ]
  %39 = phi i32 [ %13, %8 ], [ %30, %16 ]
  %40 = phi i32 [ %12, %8 ], [ %31, %16 ]
  %41 = phi i32 [ %11, %8 ], [ %32, %16 ]
  %42 = add nuw nsw i32 %10, 1
  %43 = icmp slt i32 %10, %37
  br i1 %43, label %8, label %44, !llvm.loop !11

44:                                               ; preds = %36, %0
  %45 = phi i32 [ -1, %0 ], [ %38, %36 ]
  %46 = phi i32 [ -1, %0 ], [ %39, %36 ]
  %47 = phi i32 [ undef, %0 ], [ %40, %36 ]
  %48 = phi i32 [ undef, %0 ], [ %41, %36 ]
  %49 = sub nsw i32 %47, %45
  %50 = icmp sgt i32 %49, 1
  br i1 %50, label %51, label %58

51:                                               ; preds = %44
  %52 = sub nsw i32 %48, %46
  %53 = icmp sgt i32 %52, 1
  br i1 %53, label %54, label %58

54:                                               ; preds = %51
  %55 = add nsw i32 %49, -1
  %56 = add nsw i32 %52, -1
  %57 = mul nsw i32 %56, %55
  br label %58

58:                                               ; preds = %44, %51, %54
  %59 = phi i32 [ %57, %54 ], [ 0, %51 ], [ 0, %44 ]
  %60 = call i32 (i8*, ...) @printf(i8* nonnull dereferenceable(1) getelementptr inbounds ([4 x i8], [4 x i8]* @.str.1, i64 0, i64 0), i32 %59)
  call void @llvm.lifetime.end.p0i8(i64 4, i8* nonnull %4) #3
  call void @llvm.lifetime.end.p0i8(i64 4, i8* nonnull %3) #3
  ret i32 0
}

; Function Attrs: argmemonly mustprogress nofree nosync nounwind willreturn
declare void @llvm.lifetime.start.p0i8(i64 immarg, i8* nocapture) #1

; Function Attrs: nofree nounwind
declare noundef i32 @__isoc99_scanf(i8* nocapture noundef readonly, ...) local_unnamed_addr #2

; Function Attrs: nofree nounwind
declare noundef i32 @printf(i8* nocapture noundef readonly, ...) local_unnamed_addr #2

; Function Attrs: argmemonly mustprogress nofree nosync nounwind willreturn
declare void @llvm.lifetime.end.p0i8(i64 immarg, i8* nocapture) #1


!llvm.module.flags = !{!0, !1, !2, !3}
!llvm.ident = !{!4}

!0 = !{i32 1, !"wchar_size", i32 4}
!1 = !{i32 7, !"PIC Level", i32 2}
!2 = !{i32 7, !"PIE Level", i32 2}
!3 = !{i32 7, !"uwtable", i32 1}
!4 = !{!"clang version 13.0.0"}
!5 = !{!6, !6, i64 0}
!6 = !{!"int", !7, i64 0}
!7 = !{!"omnipotent char", !8, i64 0}
!8 = !{!"Simple C/C++ TBAA"}
!9 = distinct !{!9, !10}
!10 = !{!"llvm.loop.mustprogress"}
!11 = distinct !{!11, !10, !12}
!12 = !{!"llvm.loop.unswitch.partial.disable"}
